; ModuleID = 'source-C-CXX/2/565.c'
source_filename = "source-C-CXX/2/565.c"
target datalayout = "e-m:e-p270:32:32-p271:32:32-p272:64:64-i64:64-f80:128-n8:16:32:64-S128"
target triple = "x86_64-pc-linux-gnu"

@.str = private unnamed_addr constant [5 x i8] c"%d%d\00", align 1
@.str.1 = private unnamed_addr constant [3 x i8] c"%d\00", align 1
@str = private unnamed_addr constant [3 x i8] c"no\00", align 1
@str.4 = private unnamed_addr constant [4 x i8] c"yes\00", align 1

; Function Attrs: nofree nounwind sspstrong uwtable
define dso_local i32 @main() local_unnamed_addr #0 {
  %1 = alloca i32, align 4
  %2 = alloca i32, align 4
  %3 = alloca [1001 x i32], align 16
  %4 = bitcast i32* %1 to i8*
  call void @llvm.lifetime.start.p0i8(i64 4, i8* nonnull %4) #4
  %5 = bitcast i32* %2 to i8*
  call void @llvm.lifetime.start.p0i8(i64 4, i8* nonnull %5) #4
  %6 = bitcast [1001 x i32]* %3 to i8*
  call void @llvm.lifetime.start.p0i8(i64 4004, i8* nonnull %6) #4
  %7 = call i32 (i8*, ...) @__isoc99_scanf(i8* getelementptr inbounds ([5 x i8], [5 x i8]* @.str, i64 0, i64 0), i32* nonnull %1, i32* nonnull %2)
  %8 = load i32, i32* %1, align 4, !tbaa !5
  %9 = icmp sgt i32 %8, 0
  br i1 %9, label %20, label %10

10:                                               ; preds = %0
  %11 = add i32 %8, -1
  br label %47

12:                                               ; preds = %20
  %13 = add i32 %25, -1
  %14 = load i32, i32* %2, align 4
  %15 = icmp sgt i32 %25, 1
  br i1 %15, label %16, label %47

16:                                               ; preds = %12
  %17 = zext i32 %25 to i64
  %18 = zext i32 %13 to i64
  %19 = zext i32 %25 to i64
  br label %31

20:                                               ; preds = %0, %20
  %21 = phi i64 [ %24, %20 ], [ 0, %0 ]
  %22 = getelementptr inbounds [1001 x i32], [1001 x i32]* %3, i64 0, i64 %21
  %23 = call i32 (i8*, ...) @__isoc99_scanf(i8* getelementptr inbounds ([3 x i8], [3 x i8]* @.str.1, i64 0, i64 0), i32* nonnull %22)
  %24 = add nuw nsw i64 %21, 1
  %25 = load i32, i32* %1, align 4, !tbaa !5
  %26 = sext i32 %25 to i64
  %27 = icmp slt i64 %24, %26
  br i1 %27, label %20, label %12, !llvm.loop !9

28:                                               ; preds = %39, %31
  %29 = add nuw nsw i64 %33, 1
  %30 = icmp eq i64 %37, %18
  br i1 %30, label %50, label %31, !llvm.loop !11

31:                                               ; preds = %16, %28
  %32 = phi i64 [ 0, %16 ], [ %37, %28 ]
  %33 = phi i64 [ 1, %16 ], [ %29, %28 ]
  %34 = getelementptr inbounds [1001 x i32], [1001 x i32]* %3, i64 0, i64 %32
  %35 = load i32, i32* %34, align 4, !tbaa !5
  %36 = sub nsw i32 %14, %35
  %37 = add nuw nsw i64 %32, 1
  %38 = icmp ult i64 %37, %17
  br i1 %38, label %41, label %28

39:                                               ; preds = %41
  %40 = icmp eq i64 %46, %19
  br i1 %40, label %28, label %41, !llvm.loop !12

41:                                               ; preds = %31, %39
  %42 = phi i64 [ %46, %39 ], [ %33, %31 ]
  %43 = getelementptr inbounds [1001 x i32], [1001 x i32]* %3, i64 0, i64 %42
  %44 = load i32, i32* %43, align 4, !tbaa !5
  %45 = icmp eq i32 %36, %44
  %46 = add nuw nsw i64 %42, 1
  br i1 %45, label %50, label %39

47:                                               ; preds = %10, %12
  %48 = phi i32 [ %13, %12 ], [ %11, %10 ]
  %49 = icmp eq i32 %48, 0
  br i1 %49, label %50, label %53

50:                                               ; preds = %28, %41, %47
  %51 = phi i8* [ getelementptr inbounds ([3 x i8], [3 x i8]* @str, i64 0, i64 0), %47 ], [ getelementptr inbounds ([4 x i8], [4 x i8]* @str.4, i64 0, i64 0), %41 ], [ getelementptr inbounds ([3 x i8], [3 x i8]* @str, i64 0, i64 0), %28 ]
  %52 = call i32 @puts(i8* nonnull dereferenceable(1) %51)
  br label %53

53:                                               ; preds = %50, %47
  call void @llvm.lifetime.end.p0i8(i64 4004, i8* nonnull %6) #4
  call void @llvm.lifetime.end.p0i8(i64 4, i8* nonnull %5) #4
  call void @llvm.lifetime.end.p0i8(i64 4, i8* nonnull %4) #4
  ret i32 0
}

; Function Attrs: argmemonly mustprogress nofree nosync nounwind willreturn
declare void @llvm.lifetime.start.p0i8(i64 immarg, i8* nocapture) #1

; Function Attrs: nofree nounwind
declare noundef i32 @__isoc99_scanf(i8* nocapture noundef readonly, ...) local_unnamed_addr #2

; Function Attrs: argmemonly mustprogress nofree nosync nounwind willreturn
declare void @llvm.lifetime.end.p0i8(i64 immarg, i8* nocapture) #1

; Function Attrs: nofree nounwind
declare noundef i32 @puts(i8* nocapture noundef readonly) local_unnamed_addr #3


!llvm.module.flags = !{!0, !1, !2, !3}
!llvm.ident = !{!4}

!0 = !{i32 1, !"wchar_size", i32 4}
!1 = !{i32 7, !"PIC Level", i32 2}
!2 = !{i32 7, !"PIE Level", i32 2}
!3 = !{i32 7, !"uwtable", i32 1}
!4 = !{!"clang version 13.0.0"}
!5 = !{!6, !6, i64 0}
!6 = !{!"int", !7, i64 0}
!7 = !{!"omnipotent char", !8, i64 0}
!8 = !{!"Simple C/C++ TBAA"}
!9 = distinct !{!9, !10}
!10 = !{!"llvm.loop.mustprogress"}
!11 = distinct !{!11, !10}
!12 = distinct !{!12, !10}
